; Function Attrs: nounwind uwtable
define dso_local range(i32 -2147483648, 2) i32 @onig_get_callout_data_by_tag(ptr noundef %0, ptr noundef readonly captures(none) %1, ptr noundef %2, ptr noundef %3, i32 noundef %4, ptr noundef writeonly captures(address_is_null) %5, ptr noundef writeonly captures(address_is_null) %6) local_unnamed_addr #4 {
  %8 = tail call i32 @onig_get_callout_num_by_tag(ptr noundef %0, ptr noundef %2, ptr noundef %3) #30
  %9 = icmp slt i32 %8, 0
  br i1 %9, label %34, label %10

10:                                               ; preds = %7
  %11 = icmp eq i32 %8, 0
  br i1 %11, label %34, label %12

12:                                               ; preds = %10
  %13 = getelementptr inbounds nuw i8, ptr %1, i64 56
  %14 = load ptr, ptr %13, align 8, !tbaa !41
  %15 = zext nneg i32 %8 to i64
  %16 = getelementptr %struct.CalloutData, ptr %14, i64 %15
  %17 = getelementptr i8, ptr %16, i64 -128
  %18 = load i32, ptr %17, align 8, !tbaa !53
  %19 = getelementptr inbounds nuw i8, ptr %1, i64 48
  %20 = load i32, ptr %19, align 8, !tbaa !40
  %.not.i = icmp eq i32 %18, %20
  br i1 %.not.i, label %23, label %21

21:                                               ; preds = %12
  tail call void @llvm.memset.p0.i64(ptr noundef nonnull align 8 dereferenceable(128) %17, i8 0, i64 128, i1 false)
  %22 = load i32, ptr %19, align 8, !tbaa !40
  store i32 %22, ptr %17, align 8, !tbaa !53
  br label %23

23:                                               ; preds = %21, %12
  %24 = getelementptr i8, ptr %16, i64 -120
  %25 = sext i32 %4 to i64
  %26 = getelementptr inbounds [5 x %struct.anon], ptr %24, i64 0, i64 %25
  %27 = load i32, ptr %26, align 8, !tbaa !53
  %.not21.i = icmp eq ptr %5, null
  br i1 %.not21.i, label %29, label %28

28:                                               ; preds = %23
  store i32 %27, ptr %5, align 4, !tbaa !24
  br label %29

29:                                               ; preds = %28, %23
  %.not22.i = icmp eq ptr %6, null
  br i1 %.not22.i, label %onig_get_callout_data.exit, label %30

30:                                               ; preds = %29
  %31 = getelementptr inbounds nuw i8, ptr %26, i64 8
  tail call void @llvm.memcpy.p0.p0.i64(ptr noundef nonnull align 8 dereferenceable(16) %6, ptr noundef nonnull align 8 dereferenceable(16) %31, i64 16, i1 false), !tbaa.struct !55
  br label %onig_get_callout_data.exit

onig_get_callout_data.exit:                       ; preds = %29, %30
  %32 = icmp eq i32 %27, 0
  %33 = zext i1 %32 to i32
  br label %34

34:                                               ; preds = %10, %7, %onig_get_callout_data.exit
  %.0 = phi i32 [ %33, %onig_get_callout_data.exit ], [ %8, %7 ], [ -231, %10 ]
  ret i32 %.0
}